; Function Attrs: mustprogress uwtable
define hidden void @_ZN7VocData10getObjectsERKNSt7__cxx1112basic_stringIcSt11char_traitsIcESaIcEEERSt6vectorI9ObdObjectSaIS9_EE(ptr dead_on_unwind noalias writable sret(%class.ObdImage) align 8 %0, ptr noundef nonnull readonly align 8 captures(none) dereferenceable(365) %1, ptr noundef nonnull readonly align 8 captures(none) dereferenceable(32) %2, ptr noundef nonnull align 8 dereferenceable(24) %3) local_unnamed_addr #4 align 2 personality ptr @__gxx_personality_v0 {
  %5 = alloca %"class.std::vector.30", align 8
  call void @llvm.lifetime.start.p0(i64 24, ptr nonnull %5) #32
  call void @llvm.memset.p0.i64(ptr noundef nonnull align 8 dereferenceable(24) %5, i8 0, i64 24, i1 false)
  invoke void @_ZN7VocData10getObjectsERKNSt7__cxx1112basic_stringIcSt11char_traitsIcESaIcEEERSt6vectorI9ObdObjectSaIS9_EERS8_I13VocObjectDataSaISD_EE(ptr dead_on_unwind writable sret(%class.ObdImage) align 8 %0, ptr noundef nonnull align 8 dereferenceable(365) %1, ptr noundef nonnull align 8 dereferenceable(32) %2, ptr noundef nonnull align 8 dereferenceable(24) %3, ptr noundef nonnull align 8 dereferenceable(24) %5)
          to label %10 unwind label %6

6:                                                ; preds = %4
  %7 = landingpad { ptr, i32 }
          cleanup
  %8 = load ptr, ptr %5, align 8, !tbaa !70
  %.not.i.i.i = icmp eq ptr %8, null
  br i1 %.not.i.i.i, label %_ZNSt6vectorI13VocObjectDataSaIS0_EED2Ev.exit, label %9

9:                                                ; preds = %6
  tail call void @_ZdlPv(ptr noundef nonnull %8) #33
  br label %_ZNSt6vectorI13VocObjectDataSaIS0_EED2Ev.exit

_ZNSt6vectorI13VocObjectDataSaIS0_EED2Ev.exit:    ; preds = %6, %9
  call void @llvm.lifetime.end.p0(i64 24, ptr nonnull %5) #32
  resume { ptr, i32 } %7

10:                                               ; preds = %4
  %11 = load ptr, ptr %5, align 8, !tbaa !70
  %.not.i.i.i5 = icmp eq ptr %11, null
  br i1 %.not.i.i.i5, label %_ZNSt6vectorI13VocObjectDataSaIS0_EED2Ev.exit6, label %12

12:                                               ; preds = %10
  tail call void @_ZdlPv(ptr noundef nonnull %11) #33
  br label %_ZNSt6vectorI13VocObjectDataSaIS0_EED2Ev.exit6

_ZNSt6vectorI13VocObjectDataSaIS0_EED2Ev.exit6:   ; preds = %10, %12
  call void @llvm.lifetime.end.p0(i64 24, ptr nonnull %5) #32
  ret void
}